target datalayout = "e-m:e-p270:32:32-p271:32:32-p272:64:64-i64:64-i128:128-f80:128-n8:16:32:64-S128"
target triple = "x86_64-pc-linux-gnu"

%struct.expert_field = type { i32, i32 }
%struct._packet_info = type { ptr, ptr, i32, i32, %struct.nstime_t, %struct.nstime_t, %struct.nstime_t, i8, ptr, ptr, ptr, ptr, %struct._address, %struct._address, %struct._address, %struct._address, %struct._address, %struct._address, i32, ptr, i8, [3 x i8], %struct.anon, i32, i32, i32, i32, ptr, i8, ptr, ptr, i16, i16, i32, i32, i16, i32, i32, ptr, ptr, ptr, i8, i8, i16, i16, i16, i32, i16, i16, ptr, ptr, ptr, ptr, ptr, i32, i32 }
%struct.nstime_t = type { i64, i32 }
%struct._address = type { i32, i32, ptr, ptr }
%struct.anon = type { i8, [3 x i8] }

@hf_command = internal global i32 0, align 4
@hf_synphasor_extended_frame_data = internal global i32 0, align 4
@hf_synphasor_unknown_data = internal global i32 0, align 4
@ett_command = internal global i32 0, align 4
@ei_synphasor_extended_frame_data = internal global %struct.expert_field zeroinitializer, align 4
@.str.321 = private unnamed_addr constant [13 x i8] c"Command data\00", align 1
@.str.322 = private unnamed_addr constant [16 x i8] c"invalid command\00", align 1
@.str.323 = private unnamed_addr constant [3 x i8] c", \00", align 1

; Function Attrs: null_pointer_is_valid sspstrong uwtable
define internal i32 @dissect_command_frame(ptr noundef %0, ptr noundef %1, ptr noundef %2) #0 {
  %4 = alloca ptr, align 8
  %5 = alloca ptr, align 8
  %6 = alloca ptr, align 8
  %7 = alloca ptr, align 8
  %8 = alloca i32, align 4
  %9 = alloca ptr, align 8
  %10 = alloca ptr, align 8
  store ptr %0, ptr %4, align 8
  store ptr %1, ptr %5, align 8
  store ptr %2, ptr %6, align 8
  call void @llvm.lifetime.start.p0(i64 8, ptr %7) #8
  call void @llvm.lifetime.start.p0(i64 4, ptr %8) #8
  %11 = load ptr, ptr %4, align 8
  %12 = call i32 @tvb_reported_length(ptr noundef %11)
  store i32 %12, ptr %8, align 4
  call void @llvm.lifetime.start.p0(i64 8, ptr %9) #8
  %13 = load ptr, ptr %5, align 8
  call void (ptr, ptr, ...) @proto_item_set_text(ptr noundef %13, ptr noundef @.str.321)
  %14 = load ptr, ptr %5, align 8
  %15 = load i32, ptr @ett_command, align 4
  %16 = call ptr @proto_item_add_subtree(ptr noundef %14, i32 noundef %15)
  store ptr %16, ptr %7, align 8
  %17 = load ptr, ptr %7, align 8
  %18 = load i32, ptr @hf_command, align 4
  %19 = load ptr, ptr %4, align 8
  %20 = call ptr @proto_tree_add_item(ptr noundef %17, i32 noundef %18, ptr noundef %19, i32 noundef 0, i32 noundef 2, i32 noundef 0)
  %21 = load ptr, ptr %4, align 8
  %22 = call zeroext i16 @tvb_get_ntohs(ptr noundef %21, i32 noundef 0)
  %23 = zext i16 %22 to i32
  %24 = call ptr @rval_to_str_const(i32 noundef %23, ptr noundef @command_names, ptr noundef @.str.322)
  store ptr %24, ptr %9, align 8
  %25 = load ptr, ptr %6, align 8
  %26 = getelementptr inbounds nuw %struct._packet_info, ptr %25, i32 0, i32 1
  %27 = load ptr, ptr %26, align 8
  call void @col_append_str(ptr noundef %27, i32 noundef 25, ptr noundef @.str.323)
  %28 = load ptr, ptr %6, align 8
  %29 = getelementptr inbounds nuw %struct._packet_info, ptr %28, i32 0, i32 1
  %30 = load ptr, ptr %29, align 8
  %31 = load ptr, ptr %9, align 8
  call void @col_append_str(ptr noundef %30, i32 noundef 25, ptr noundef %31)
  %32 = load i32, ptr %8, align 4
  %33 = icmp ugt i32 %32, 2
  br i1 %33, label %34, label %62

34:                                               ; preds = %3
  %35 = load ptr, ptr %4, align 8
  %36 = call zeroext i16 @tvb_get_ntohs(ptr noundef %35, i32 noundef 0)
  %37 = zext i16 %36 to i32
  %38 = icmp eq i32 %37, 8
  br i1 %38, label %39, label %54

39:                                               ; preds = %34
  call void @llvm.lifetime.start.p0(i64 8, ptr %10) #8
  %40 = load ptr, ptr %7, align 8
  %41 = load i32, ptr @hf_synphasor_extended_frame_data, align 4
  %42 = load ptr, ptr %4, align 8
  %43 = load i32, ptr %8, align 4
  %44 = sub i32 %43, 2
  %45 = call ptr @proto_tree_add_item(ptr noundef %40, i32 noundef %41, ptr noundef %42, i32 noundef 2, i32 noundef %44, i32 noundef 0)
  store ptr %45, ptr %10, align 8
  %46 = load i32, ptr %8, align 4
  %47 = urem i32 %46, 2
  %48 = icmp ne i32 %47, 0
  br i1 %48, label %49, label %53

49:                                               ; preds = %39
  %50 = load ptr, ptr %6, align 8
  %51 = load ptr, ptr %10, align 8
  %52 = call ptr @expert_add_info(ptr noundef %50, ptr noundef %51, ptr noundef @ei_synphasor_extended_frame_data)
  br label %53

53:                                               ; preds = %49, %39
  call void @llvm.lifetime.end.p0(i64 8, ptr %10) #8
  br label %61

54:                                               ; preds = %34
  %55 = load ptr, ptr %7, align 8
  %56 = load i32, ptr @hf_synphasor_unknown_data, align 4
  %57 = load ptr, ptr %4, align 8
  %58 = load i32, ptr %8, align 4
  %59 = sub i32 %58, 2
  %60 = call ptr @proto_tree_add_item(ptr noundef %55, i32 noundef %56, ptr noundef %57, i32 noundef 2, i32 noundef %59, i32 noundef 0)
  br label %61

61:                                               ; preds = %54, %53
  br label %62

62:                                               ; preds = %61, %3
  %63 = load i32, ptr %8, align 4
  call void @llvm.lifetime.end.p0(i64 8, ptr %9) #8
  call void @llvm.lifetime.end.p0(i64 4, ptr %8) #8
  call void @llvm.lifetime.end.p0(i64 8, ptr %7) #8
  ret i32 %63
}