; Function Attrs: null_pointer_is_valid sspstrong uwtable
define internal fastcc void @dissect_command_frame(ptr noundef %0, ptr noundef %1, ptr noundef %2) unnamed_addr #0 {
  %4 = tail call i32 @tvb_reported_length(ptr noundef %0)
  tail call void (ptr, ptr, ...) @proto_item_set_text(ptr noundef %1, ptr noundef nonnull @.str.321)
  %5 = load i32, ptr @ett_command, align 4
  %6 = tail call ptr @proto_item_add_subtree(ptr noundef %1, i32 noundef %5)
  %7 = load i32, ptr @hf_command, align 4
  %8 = tail call ptr @proto_tree_add_item(ptr noundef %6, i32 noundef %7, ptr noundef %0, i32 noundef 0, i32 noundef 2, i32 noundef 0)
  %9 = tail call zeroext i16 @tvb_get_ntohs(ptr noundef %0, i32 noundef 0)
  %10 = zext i16 %9 to i32
  %11 = tail call ptr @rval_to_str_const(i32 noundef %10, ptr noundef nonnull @command_names, ptr noundef nonnull @.str.322)
  %12 = getelementptr inbounds nuw i8, ptr %2, i64 8
  %13 = load ptr, ptr %12, align 8
  tail call void @col_append_str(ptr noundef %13, i32 noundef 25, ptr noundef nonnull @.str.323)
  %14 = load ptr, ptr %12, align 8
  tail call void @col_append_str(ptr noundef %14, i32 noundef 25, ptr noundef %11)
  %15 = icmp ugt i32 %4, 2
  br i1 %15, label %16, label %29

16:                                               ; preds = %3
  %17 = tail call zeroext i16 @tvb_get_ntohs(ptr noundef %0, i32 noundef 0)
  %18 = icmp eq i16 %17, 8
  %19 = add i32 %4, -2
  br i1 %18, label %20, label %26

20:                                               ; preds = %16
  %21 = load i32, ptr @hf_synphasor_extended_frame_data, align 4
  %22 = tail call ptr @proto_tree_add_item(ptr noundef %6, i32 noundef %21, ptr noundef %0, i32 noundef 2, i32 noundef %19, i32 noundef 0)
  %23 = and i32 %4, 1
  %.not = icmp eq i32 %23, 0
  br i1 %.not, label %29, label %24

24:                                               ; preds = %20
  %25 = tail call ptr @expert_add_info(ptr noundef %2, ptr noundef %22, ptr noundef nonnull @ei_synphasor_extended_frame_data)
  br label %29

26:                                               ; preds = %16
  %27 = load i32, ptr @hf_synphasor_unknown_data, align 4
  %28 = tail call ptr @proto_tree_add_item(ptr noundef %6, i32 noundef %27, ptr noundef %0, i32 noundef 2, i32 noundef %19, i32 noundef 0)
  br label %29

29:                                               ; preds = %20, %24, %26, %3
  ret void
}